; Function Attrs: nounwind uwtable
define dso_local void @slurm_make_time_str(ptr noundef %0, ptr noundef %1, i32 noundef %2) local_unnamed_addr #0 {
  %4 = alloca %struct.tm, align 8
  call void @llvm.lifetime.start.p0(i64 56, ptr nonnull %4) #13
  %5 = call ptr @localtime_r(ptr noundef %0, ptr noundef nonnull %4) #13
  %6 = load i64, ptr %0, align 8
  switch i64 %6, label %13 [
    i64 0, label %7
    i64 4294967295, label %7
    i64 4294967294, label %10
  ]

7:                                                ; preds = %3, %3
  %8 = sext i32 %2 to i64
  %9 = call i32 (ptr, i64, ptr, ...) @snprintf(ptr noundef %1, i64 noundef %8, ptr noundef nonnull @.str.30) #13
  br label %_make_time_str_internal.exit

10:                                               ; preds = %3
  %11 = sext i32 %2 to i64
  %12 = call i32 (ptr, i64, ptr, ...) @snprintf(ptr noundef %1, i64 noundef %11, ptr noundef nonnull @.str.31) #13
  br label %_make_time_str_internal.exit

13:                                               ; preds = %3
  %14 = call ptr @getenv(ptr noundef nonnull @.str.33) #13
  %.not.i = icmp eq ptr %14, null
  br i1 %.not.i, label %35, label %15

15:                                               ; preds = %13
  %16 = load i8, ptr %14, align 1
  %.not25.i = icmp eq i8 %16, 0
  br i1 %.not25.i, label %35, label %17

17:                                               ; preds = %15
  %18 = call i32 @xstrcmp(ptr noundef nonnull %14, ptr noundef nonnull @.str.34) #13
  %.not26.i = icmp eq i32 %18, 0
  br i1 %.not26.i, label %35, label %19

19:                                               ; preds = %17
  %20 = call i32 @xstrcmp(ptr noundef nonnull %14, ptr noundef nonnull @.str.35) #13
  %.not27.i = icmp eq i32 %20, 0
  br i1 %.not27.i, label %21, label %25

21:                                               ; preds = %19
  %22 = getelementptr inbounds nuw i8, ptr %4, i64 20
  %.val.i = load i32, ptr %22, align 4
  %23 = getelementptr inbounds nuw i8, ptr %4, i64 28
  %.val29.i = load i32, ptr %23, align 4
  %24 = call fastcc ptr @_relative_date_fmt(i32 %.val.i, i32 %.val29.i)
  store ptr %24, ptr @_make_time_str_internal.display_fmt, align 8
  br label %35

25:                                               ; preds = %19
  %26 = call ptr @strchr(ptr noundef nonnull dereferenceable(1) %14, i32 noundef 37) #16
  %27 = icmp eq ptr %26, null
  br i1 %27, label %31, label %28

28:                                               ; preds = %25
  %29 = call i64 @strlen(ptr noundef nonnull dereferenceable(1) %14) #16
  %30 = icmp ugt i64 %29, 31
  br i1 %30, label %31, label %33

31:                                               ; preds = %28, %25
  %32 = call i32 (ptr, ...) @error(ptr noundef nonnull @.str.36, ptr noundef nonnull %14) #13
  br label %35

33:                                               ; preds = %28
  %34 = call i64 @strlcpy(ptr noundef nonnull dereferenceable(1) @_make_time_str_internal.fmt_buf, ptr noundef nonnull dereferenceable(1) %14, i64 noundef 32) #13
  store ptr @_make_time_str_internal.fmt_buf, ptr @_make_time_str_internal.display_fmt, align 8
  br label %35

35:                                               ; preds = %33, %31, %21, %17, %15, %13
  %36 = sext i32 %2 to i64
  %37 = load ptr, ptr @_make_time_str_internal.display_fmt, align 8
  %38 = call i64 @strftime(ptr noundef %1, i64 noundef %36, ptr noundef %37, ptr noundef nonnull %4) #13
  %.not28.i = icmp eq i64 %38, 0
  br i1 %.not28.i, label %39, label %_make_time_str_internal.exit

39:                                               ; preds = %35
  call void @llvm.memset.p0.i64(ptr align 1 %1, i8 35, i64 %36, i1 false)
  %40 = getelementptr i8, ptr %1, i64 %36
  %41 = getelementptr i8, ptr %40, i64 -1
  store i8 0, ptr %41, align 1
  br label %_make_time_str_internal.exit

_make_time_str_internal.exit:                     ; preds = %7, %10, %35, %39
  call void @llvm.lifetime.end.p0(i64 56, ptr nonnull %4) #13
  ret void
}